; Function Attrs: mustprogress uwtable
define void @_ZNK8proxygen11HTTPMessage17atomicDumpMessageEi(ptr nocapture noundef nonnull readnone align 8 dereferenceable(616) %this, i32 noundef %vlogLevel) local_unnamed_addr #2 align 2 personality ptr @__gxx_personality_v0 {
entry:
  %call1.i.i.i = tail call noundef i32 @pthread_mutex_lock(ptr noundef nonnull @_ZN8proxygen11HTTPMessage10mutexDump_E) #23
  %tobool.not.i.i = icmp eq i32 %call1.i.i.i, 0
  br i1 %tobool.not.i.i, label %_ZNSt10lock_guardISt5mutexEC2ERS0_.exit, label %if.then.i.i

if.then.i.i:                                      ; preds = %entry
  tail call void @_ZSt20__throw_system_errori(i32 noundef %call1.i.i.i) #32
  unreachable

_ZNSt10lock_guardISt5mutexEC2ERS0_.exit:          ; preds = %entry
  %call1.i.i.i1 = tail call noundef i32 @pthread_mutex_unlock(ptr noundef nonnull @_ZN8proxygen11HTTPMessage10mutexDump_E) #23
  ret void
}